; Function Attrs: mustprogress uwtable
define hidden noundef zeroext i1 @_ZN7nanogui6Screen12resize_eventERKNS_5ArrayIiLm2EEE(ptr noundef nonnull align 8 dereferenceable(384) %0, ptr nocapture noundef nonnull readonly align 4 dereferenceable(8) %1) unnamed_addr #3 align 2 personality ptr @__gxx_personality_v0 {
  %3 = alloca %"struct.nanogui::Array", align 8
  %4 = getelementptr inbounds i8, ptr %0, i64 368
  %5 = load ptr, ptr %4, align 8
  %.not.i.i.not = icmp eq ptr %5, null
  br i1 %.not.i.i.not, label %9, label %_ZNKSt8functionIFvN7nanogui5ArrayIiLm2EEEEEclES2_.exit

_ZNKSt8functionIFvN7nanogui5ArrayIiLm2EEEEEclES2_.exit: ; preds = %2
  %6 = getelementptr inbounds i8, ptr %0, i64 352
  %.sroa.0.0.copyload = load i64, ptr %1, align 4
  call void @llvm.lifetime.start.p0(i64 8, ptr nonnull %3)
  store i64 %.sroa.0.0.copyload, ptr %3, align 8
  %7 = getelementptr inbounds i8, ptr %0, i64 376
  %8 = load ptr, ptr %7, align 8
  call void %8(ptr noundef nonnull align 8 dereferenceable(16) %6, ptr noundef nonnull align 4 dereferenceable(8) %3)
  call void @llvm.lifetime.end.p0(i64 8, ptr nonnull %3)
  br label %9

9:                                                ; preds = %_ZNKSt8functionIFvN7nanogui5ArrayIiLm2EEEEEclES2_.exit, %2
  %10 = getelementptr inbounds i8, ptr %0, i64 349
  store i8 1, ptr %10, align 1
  %11 = load ptr, ptr %0, align 8
  %12 = getelementptr inbounds i8, ptr %11, i64 120
  %13 = load ptr, ptr %12, align 8
  call void %13(ptr noundef nonnull align 8 dereferenceable(384) %0)
  ret i1 true
}